(i__main__
LabelEncoder
p0
(dp1
S'decoder'
p2
(dp3
I0
VBUSINESS
p4
sI1
VENTERTAINMENT
p5
sI2
VCRIME
p6
sI3
VPARENTS
p7
sI4
VLATINO VOICES
p8
sI5
VPOLITICS
p9
sI6
VIMPACT
p10
sI7
VARTS
p11
sI8
VFIFTY
p12
sI9
VRELIGION
p13
sI10
VTECH
p14
sI11
VSCIENCE
p15
sI12
VCOMEDY
p16
sI13
VWOMEN
p17
sI14
VSTYLE
p18
sI15
VGOOD NEWS
p19
sI16
VMEDIA
p20
sI17
VWEIRD NEWS
p21
sI18
VWORLD NEWS
p22
sI19
VARTS & CULTURE
p23
sI20
VTRAVEL
p24
sI21
VQUEER VOICES
p25
sI22
VTHE WORLDPOST
p26
sI23
VSPORTS
p27
sI24
VTASTE
p28
sI25
VBLACK VOICES
p29
sI26
VWORLDPOST
p30
sI27
VCOLLEGE
p31
sI28
VGREEN
p32
sI29
VEDUCATION
p33
sI30
VHEALTHY LIVING
p34
ssS'encoder'
p35
(dp36
g4
I0
sg5
I1
sg6
I2
sg7
I3
sg8
I4
sg9
I5
sg10
I6
sg11
I7
sg12
I8
sg13
I9
sg14
I10
sg20
I16
sg16
I12
sg17
I13
sg18
I14
sg19
I15
sg15
I11
sg21
I17
sg22
I18
sg23
I19
sg24
I20
sg25
I21
sg26
I22
sg27
I23
sg28
I24
sg29
I25
sg30
I26
sg31
I27
sg32
I28
sg33
I29
sg34
I30
ssb.